target datalayout = "e-m:e-p270:32:32-p271:32:32-p272:64:64-i64:64-i128:128-f80:128-n8:16:32:64-S128"
target triple = "x86_64-pc-linux-gnu"

; Function Attrs: nounwind uwtable
define dso_local i32 @onig_strncmp(ptr noundef %0, ptr noundef %1, i32 noundef %2) #0 {
  %4 = alloca i32, align 4
  %5 = alloca ptr, align 8
  %6 = alloca ptr, align 8
  %7 = alloca i32, align 4
  %8 = alloca i32, align 4
  %9 = alloca i32, align 4
  store ptr %0, ptr %5, align 8, !tbaa !4
  store ptr %1, ptr %6, align 8, !tbaa !4
  store i32 %2, ptr %7, align 4, !tbaa !10
  call void @llvm.lifetime.start.p0(i64 4, ptr %8) #8
  br label %10

10:                                               ; preds = %28, %3
  %11 = load i32, ptr %7, align 4, !tbaa !10
  %12 = add nsw i32 %11, -1
  store i32 %12, ptr %7, align 4, !tbaa !10
  %13 = icmp sgt i32 %11, 0
  br i1 %13, label %14, label %29

14:                                               ; preds = %10
  %15 = load ptr, ptr %6, align 8, !tbaa !4
  %16 = getelementptr inbounds nuw i8, ptr %15, i32 1
  store ptr %16, ptr %6, align 8, !tbaa !4
  %17 = load i8, ptr %15, align 1, !tbaa !12
  %18 = zext i8 %17 to i32
  %19 = load ptr, ptr %5, align 8, !tbaa !4
  %20 = getelementptr inbounds nuw i8, ptr %19, i32 1
  store ptr %20, ptr %5, align 8, !tbaa !4
  %21 = load i8, ptr %19, align 1, !tbaa !12
  %22 = zext i8 %21 to i32
  %23 = sub nsw i32 %18, %22
  store i32 %23, ptr %8, align 4, !tbaa !10
  %24 = load i32, ptr %8, align 4, !tbaa !10
  %25 = icmp ne i32 %24, 0
  br i1 %25, label %26, label %28

26:                                               ; preds = %14
  %27 = load i32, ptr %8, align 4, !tbaa !10
  store i32 %27, ptr %4, align 4
  store i32 1, ptr %9, align 4
  br label %30

28:                                               ; preds = %14
  br label %10, !llvm.loop !13

29:                                               ; preds = %10
  store i32 0, ptr %4, align 4
  store i32 1, ptr %9, align 4
  br label %30

30:                                               ; preds = %29, %26
  call void @llvm.lifetime.end.p0(i64 4, ptr %8) #8
  %31 = load i32, ptr %4, align 4
  ret i32 %31
}